; Function Attrs: mustprogress nounwind uwtable
define dso_local void @_ZNK4llvm3pdb20NativeFunctionSymbol4dumpERNS_11raw_ostreamEiNS0_16PdbSymbolIdFieldES4_(ptr noundef nonnull align 8 dereferenceable(92) %0, ptr noundef nonnull align 8 dereferenceable(48) %1, i32 noundef %2, i32 noundef %3, i32 noundef %4) unnamed_addr #0 align 2 {
  %6 = alloca %"class.std::__cxx11::basic_string", align 8
  tail call void @_ZNK4llvm3pdb15NativeRawSymbol4dumpERNS_11raw_ostreamEiNS0_16PdbSymbolIdFieldES4_(ptr noundef nonnull align 8 dereferenceable(24) %0, ptr noundef nonnull align 8 dereferenceable(48) %1, i32 noundef %2, i32 noundef %3, i32 noundef %4) #14
  %7 = load ptr, ptr %0, align 8
  %8 = getelementptr inbounds i8, ptr %7, i64 336
  %9 = load ptr, ptr %8, align 8
  call void %9(ptr dead_on_unwind nonnull writable sret(%"class.std::__cxx11::basic_string") align 8 %6, ptr noundef nonnull align 8 dereferenceable(92) %0) #14
  call void @_ZN4llvm3pdb15dumpSymbolFieldINSt7__cxx1112basic_stringIcSt11char_traitsIcESaIcEEEEEvRNS_11raw_ostreamENS_9StringRefET_i(ptr noundef nonnull align 8 dereferenceable(48) %1, ptr nonnull @.str, i64 4, ptr noundef nonnull %6, i32 noundef %2)
  call void @_ZNSt7__cxx1112basic_stringIcSt11char_traitsIcESaIcEED1Ev(ptr noundef nonnull align 8 dereferenceable(32) %6) #14
  %10 = load ptr, ptr %0, align 8
  %11 = getelementptr inbounds i8, ptr %10, i64 752
  %12 = load ptr, ptr %11, align 8
  %13 = call noundef i64 %12(ptr noundef nonnull align 8 dereferenceable(92) %0) #14
  call void @_ZN4llvm3pdb15dumpSymbolFieldImEEvRNS_11raw_ostreamENS_9StringRefET_i(ptr noundef nonnull align 8 dereferenceable(48) %1, ptr nonnull @.str.1, i64 6, i64 noundef %13, i32 noundef %2)
  %14 = load ptr, ptr %0, align 8
  %15 = getelementptr inbounds i8, ptr %14, i64 144
  %16 = load ptr, ptr %15, align 8
  %17 = call noundef i32 %16(ptr noundef nonnull align 8 dereferenceable(92) %0) #14
  call void @_ZN4llvm3pdb15dumpSymbolFieldIjEEvRNS_11raw_ostreamENS_9StringRefET_i(ptr noundef nonnull align 8 dereferenceable(48) %1, ptr nonnull @.str.2, i64 6, i32 noundef %17, i32 noundef %2)
  %18 = load ptr, ptr %0, align 8
  %19 = getelementptr inbounds i8, ptr %18, i64 152
  %20 = load ptr, ptr %19, align 8
  %21 = call noundef i32 %20(ptr noundef nonnull align 8 dereferenceable(92) %0) #14
  call void @_ZN4llvm3pdb15dumpSymbolFieldIjEEvRNS_11raw_ostreamENS_9StringRefET_i(ptr noundef nonnull align 8 dereferenceable(48) %1, ptr nonnull @.str.3, i64 7, i32 noundef %21, i32 noundef %2)
  ret void
}